; Function Attrs: nounwind uwtable
define internal noundef i32 @yuyvToYuv422Wrapper(ptr noundef readonly captures(none) %0, ptr noundef readonly captures(none) %1, ptr noundef readonly captures(none) %2, i32 noundef %3, i32 noundef returned %4, ptr noundef readonly captures(none) %5, ptr noundef readonly captures(none) %6) #3 {
  %8 = load ptr, ptr %5, align 8, !tbaa !49
  %9 = load i32, ptr %6, align 4, !tbaa !48
  %10 = mul nsw i32 %9, %3
  %11 = sext i32 %10 to i64
  %12 = getelementptr inbounds i8, ptr %8, i64 %11
  %13 = getelementptr inbounds nuw i8, ptr %5, i64 8
  %14 = load ptr, ptr %13, align 8, !tbaa !49
  %15 = getelementptr inbounds nuw i8, ptr %6, i64 4
  %16 = load i32, ptr %15, align 4, !tbaa !48
  %17 = mul nsw i32 %16, %3
  %18 = sext i32 %17 to i64
  %19 = getelementptr inbounds i8, ptr %14, i64 %18
  %20 = getelementptr inbounds nuw i8, ptr %5, i64 16
  %21 = load ptr, ptr %20, align 8, !tbaa !49
  %22 = getelementptr inbounds nuw i8, ptr %6, i64 8
  %23 = load i32, ptr %22, align 4, !tbaa !48
  %24 = mul nsw i32 %23, %3
  %25 = sext i32 %24 to i64
  %26 = getelementptr inbounds i8, ptr %21, i64 %25
  %27 = load ptr, ptr @yuyvtoyuv422, align 8, !tbaa !51
  %28 = load ptr, ptr %1, align 8, !tbaa !49
  %29 = getelementptr inbounds nuw i8, ptr %0, i64 56
  %30 = load i32, ptr %29, align 8, !tbaa !50
  %31 = load i32, ptr %2, align 4, !tbaa !48
  tail call void %27(ptr noundef %12, ptr noundef %19, ptr noundef %26, ptr noundef %28, i32 noundef %30, i32 noundef %4, i32 noundef %9, i32 noundef %16, i32 noundef %31) #13
  ret i32 %4
}